target datalayout = "e-m:e-p270:32:32-p271:32:32-p272:64:64-i64:64-i128:128-f80:128-n8:16:32:64-S128"
target triple = "x86_64-pc-linux-gnu"

%class.G1CollectionCandidateList = type { %class.GrowableArray }
%class.GrowableArray = type { %class.GrowableArrayWithAllocator, %class.GrowableArrayMetadata }
%class.GrowableArrayWithAllocator = type { %class.GrowableArrayView }
%class.GrowableArrayView = type { %class.GrowableArrayBase, ptr }
%class.GrowableArrayBase = type { i32, i32 }
%class.GrowableArrayMetadata = type { i64 }
%class.G1CollectionSetCandidates = type { [8 x i8], %class.G1CollectionCandidateList, %class.G1CollectionCandidateList, ptr, i32, i32 }

; Function Attrs: mustprogress nounwind uwtable
define linkonce_odr hidden noundef i32 @_ZNK17GrowableArrayBase6lengthEv(ptr noundef nonnull align 4 dereferenceable(8) %0) #1 comdat align 2 {
  %2 = alloca ptr, align 8
  store ptr %0, ptr %2, align 8
  %3 = load ptr, ptr %2, align 8
  %4 = getelementptr inbounds %class.GrowableArrayBase, ptr %3, i32 0, i32 0
  %5 = load i32, ptr %4, align 4
  ret i32 %5
}

; Function Attrs: mustprogress nounwind uwtable
define linkonce_odr hidden void @_ZN17GrowableArrayViewI28G1CollectionSetCandidateInfoE4sortEPFiPS0_S2_E(ptr noundef nonnull align 8 dereferenceable(16) %0, ptr noundef %1) #1 comdat align 2 {
  %3 = alloca ptr, align 8
  %4 = alloca ptr, align 8
  store ptr %0, ptr %3, align 8
  store ptr %1, ptr %4, align 8
  %5 = load ptr, ptr %3, align 8
  %6 = getelementptr inbounds %class.GrowableArrayView, ptr %5, i32 0, i32 1
  %7 = load ptr, ptr %6, align 8
  %8 = icmp eq ptr %7, null
  br i1 %8, label %9, label %10

9:                                                ; preds = %2
  br label %16

10:                                               ; preds = %2
  %11 = getelementptr inbounds %class.GrowableArrayView, ptr %5, i32 0, i32 1
  %12 = load ptr, ptr %11, align 8
  %13 = call noundef i32 @_ZNK17GrowableArrayBase6lengthEv(ptr noundef nonnull align 4 dereferenceable(8) %5)
  %14 = sext i32 %13 to i64
  %15 = load ptr, ptr %4, align 8
  call void @qsort(ptr noundef %12, i64 noundef %14, i64 noundef 24, ptr noundef %15)
  br label %16

16:                                               ; preds = %10, %9
  ret void
}

; Function Attrs: mustprogress nounwind uwtable
define hidden void @_ZN25G1CollectionCandidateList18sort_by_efficiencyEv(ptr noundef nonnull align 8 dereferenceable(24) %0) #1 align 2 {
  %2 = alloca ptr, align 8
  store ptr %0, ptr %2, align 8
  %3 = load ptr, ptr %2, align 8
  %4 = getelementptr inbounds %class.G1CollectionCandidateList, ptr %3, i32 0, i32 0
  call void @_ZN17GrowableArrayViewI28G1CollectionSetCandidateInfoE4sortEPFiPS0_S2_E(ptr noundef nonnull align 8 dereferenceable(16) %4, ptr noundef @_ZN25G1CollectionCandidateList21compare_gc_efficiencyEP28G1CollectionSetCandidateInfoS1_)
  ret void
}

; Function Attrs: mustprogress nounwind uwtable
define linkonce_odr hidden void @_ZN25G1CollectionCandidateList6verifyEv(ptr noundef nonnull align 8 dereferenceable(24) %0) #1 comdat align 2 {
  %2 = alloca ptr, align 8
  store ptr %0, ptr %2, align 8
  ret void
}

; Function Attrs: mustprogress nounwind uwtable
define hidden void @_ZN25G1CollectionSetCandidates18sort_by_efficiencyEv(ptr noundef nonnull align 8 dereferenceable(72) %0) #1 align 2 {
  %2 = alloca ptr, align 8
  store ptr %0, ptr %2, align 8
  %3 = load ptr, ptr %2, align 8
  %4 = getelementptr inbounds %class.G1CollectionSetCandidates, ptr %3, i32 0, i32 1
  call void @_ZN25G1CollectionCandidateList6verifyEv(ptr noundef nonnull align 8 dereferenceable(24) %4)
  %5 = getelementptr inbounds %class.G1CollectionSetCandidates, ptr %3, i32 0, i32 2
  call void @_ZN25G1CollectionCandidateList18sort_by_efficiencyEv(ptr noundef nonnull align 8 dereferenceable(24) %5)
  %6 = getelementptr inbounds %class.G1CollectionSetCandidates, ptr %3, i32 0, i32 2
  call void @_ZN25G1CollectionCandidateList6verifyEv(ptr noundef nonnull align 8 dereferenceable(24) %6)
  ret void
}